; Function Attrs: nounwind uwtable
define internal fastcc void @ZopfliCostModelSetFromLiteralCosts(ptr noundef %0, i64 noundef %1, ptr noundef %2, i64 noundef %3) unnamed_addr #4 {
  %5 = getelementptr inbounds nuw i8, ptr %0, i64 2832
  %6 = load ptr, ptr %5, align 8, !tbaa !51
  %7 = getelementptr inbounds nuw i8, ptr %0, i64 2816
  %8 = load ptr, ptr %7, align 8, !tbaa !53
  %9 = getelementptr inbounds nuw i8, ptr %0, i64 2848
  %10 = load i64, ptr %9, align 8, !tbaa !47
  %11 = getelementptr inbounds nuw i8, ptr %0, i64 2856
  %12 = getelementptr inbounds nuw i8, ptr %6, i64 4
  tail call void @BrotliEstimateBitCostsForLiterals(i64 noundef %1, i64 noundef %10, i64 noundef %3, ptr noundef %2, ptr noundef nonnull %11, ptr noundef nonnull %12) #13
  store float 0.000000e+00, ptr %6, align 4, !tbaa !152
  %.not = icmp eq i64 %10, 0
  br i1 %.not, label %.preheader42.preheader, label %.lr.ph

.preheader42.preheader:                           ; preds = %.lr.ph, %4
  br label %.preheader42

.lr.ph:                                           ; preds = %4, %.lr.ph
  %13 = phi float [ %18, %.lr.ph ], [ 0.000000e+00, %4 ]
  %.044 = phi i64 [ %14, %.lr.ph ], [ 0, %4 ]
  %.03843 = phi float [ %20, %.lr.ph ], [ 0.000000e+00, %4 ]
  %14 = add nuw i64 %.044, 1
  %15 = getelementptr inbounds nuw float, ptr %6, i64 %14
  %16 = load float, ptr %15, align 4, !tbaa !152
  %17 = fadd float %.03843, %16
  %18 = fadd float %13, %17
  store float %18, ptr %15, align 4, !tbaa !152
  %19 = fsub float %18, %13
  %20 = fsub float %17, %19
  %exitcond.not = icmp eq i64 %14, %10
  br i1 %exitcond.not, label %.preheader42.preheader, label %.lr.ph, !llvm.loop !164

.preheader:                                       ; preds = %FastLog2.exit
  %21 = getelementptr inbounds nuw i8, ptr %0, i64 2824
  %22 = load i32, ptr %21, align 8, !tbaa !54
  %.not48 = icmp eq i32 %22, 0
  br i1 %.not48, label %._crit_edge, label %.lr.ph47

.preheader42:                                     ; preds = %.preheader42.preheader, %FastLog2.exit
  %.145 = phi i64 [ %33, %FastLog2.exit ], [ 0, %.preheader42.preheader ]
  %23 = add nuw nsw i64 %.145, 11
  %24 = icmp samesign ult i64 %.145, 245
  br i1 %24, label %25, label %28

25:                                               ; preds = %.preheader42
  %26 = getelementptr inbounds nuw [256 x double], ptr @kBrotliLog2Table, i64 0, i64 %23
  %27 = load double, ptr %26, align 8, !tbaa !165
  br label %FastLog2.exit

28:                                               ; preds = %.preheader42
  %29 = uitofp nneg i64 %23 to double
  %30 = tail call double @log2(double noundef %29) #13, !tbaa !3
  br label %FastLog2.exit

FastLog2.exit:                                    ; preds = %25, %28
  %.0.i = phi double [ %27, %25 ], [ %30, %28 ]
  %31 = fptrunc double %.0.i to float
  %32 = getelementptr inbounds nuw float, ptr %0, i64 %.145
  store float %31, ptr %32, align 4, !tbaa !152
  %33 = add nuw nsw i64 %.145, 1
  %exitcond49.not = icmp eq i64 %33, 704
  br i1 %exitcond49.not, label %.preheader, label %.preheader42, !llvm.loop !167

.lr.ph47:                                         ; preds = %.preheader, %FastLog2.exit40
  %34 = phi i32 [ %44, %FastLog2.exit40 ], [ %22, %.preheader ]
  %.246 = phi i64 [ %47, %FastLog2.exit40 ], [ 0, %.preheader ]
  %35 = add nuw nsw i64 %.246, 20
  %36 = and i64 %35, 4294967295
  %37 = icmp samesign ult i64 %36, 256
  br i1 %37, label %38, label %41

38:                                               ; preds = %.lr.ph47
  %39 = getelementptr inbounds nuw [256 x double], ptr @kBrotliLog2Table, i64 0, i64 %36
  %40 = load double, ptr %39, align 8, !tbaa !165
  br label %FastLog2.exit40

41:                                               ; preds = %.lr.ph47
  %42 = uitofp nneg i64 %36 to double
  %43 = tail call double @log2(double noundef %42) #13, !tbaa !3
  %.pre = load i32, ptr %21, align 8, !tbaa !54
  br label %FastLog2.exit40

FastLog2.exit40:                                  ; preds = %38, %41
  %44 = phi i32 [ %34, %38 ], [ %.pre, %41 ]
  %.0.i39 = phi double [ %40, %38 ], [ %43, %41 ]
  %45 = fptrunc double %.0.i39 to float
  %46 = getelementptr inbounds nuw float, ptr %8, i64 %.246
  store float %45, ptr %46, align 4, !tbaa !152
  %47 = add nuw nsw i64 %.246, 1
  %48 = zext i32 %44 to i64
  %49 = icmp samesign ult i64 %47, %48
  br i1 %49, label %.lr.ph47, label %._crit_edge, !llvm.loop !168

._crit_edge:                                      ; preds = %FastLog2.exit40, %.preheader
  %50 = load double, ptr getelementptr inbounds nuw (i8, ptr @kBrotliLog2Table, i64 88), align 8, !tbaa !165
  %51 = fptrunc double %50 to float
  %52 = getelementptr inbounds nuw i8, ptr %0, i64 2840
  store float %51, ptr %52, align 8, !tbaa !169
  ret void
}